target datalayout = "e-m:e-p270:32:32-p271:32:32-p272:64:64-i64:64-i128:128-f80:128-n8:16:32:64-S128"
target triple = "x86_64-unknown-linux-gnu"

%"class.icu_75::UVector" = type { %"class.icu_75::UObject", i32, i32, ptr, ptr, ptr }
%"class.icu_75::UObject" = type { ptr }
%union.UElement = type { ptr }

; Function Attrs: mustprogress nounwind uwtable
define noundef i32 @_ZNK6icu_757UVector10elementAtiEi(ptr noundef nonnull align 8 dereferenceable(40) %this, i32 noundef %index) #0 align 2 {
entry:
  %this.addr = alloca ptr, align 8
  %index.addr = alloca i32, align 4
  store ptr %this, ptr %this.addr, align 8
  store i32 %index, ptr %index.addr, align 4
  %this1 = load ptr, ptr %this.addr, align 8
  %0 = load i32, ptr %index.addr, align 4
  %cmp = icmp sle i32 0, %0
  br i1 %cmp, label %land.lhs.true, label %cond.false

land.lhs.true:                                    ; preds = %entry
  %1 = load i32, ptr %index.addr, align 4
  %count = getelementptr inbounds %"class.icu_75::UVector", ptr %this1, i32 0, i32 1
  %2 = load i32, ptr %count, align 8
  %cmp2 = icmp slt i32 %1, %2
  br i1 %cmp2, label %cond.true, label %cond.false

cond.true:                                        ; preds = %land.lhs.true
  %elements = getelementptr inbounds %"class.icu_75::UVector", ptr %this1, i32 0, i32 3
  %3 = load ptr, ptr %elements, align 8
  %4 = load i32, ptr %index.addr, align 4
  %idxprom = sext i32 %4 to i64
  %arrayidx = getelementptr inbounds %union.UElement, ptr %3, i64 %idxprom
  %5 = load i32, ptr %arrayidx, align 8
  br label %cond.end

cond.false:                                       ; preds = %land.lhs.true, %entry
  br label %cond.end

cond.end:                                         ; preds = %cond.false, %cond.true
  %cond = phi i32 [ %5, %cond.true ], [ 0, %cond.false ]
  ret i32 %cond
}