; Function Attrs: mustprogress nofree norecurse nosync nounwind willreturn memory(read, inaccessiblemem: none) uwtable
define noundef i32 @_ZNK6icu_757UVector10elementAtiEi(ptr nocapture noundef nonnull readonly align 8 dereferenceable(40) %this, i32 noundef %index) local_unnamed_addr #8 align 2 {
entry:
  %cmp = icmp sgt i32 %index, -1
  %count = getelementptr inbounds i8, ptr %this, i64 8
  %0 = load i32, ptr %count, align 8
  %cmp2 = icmp sgt i32 %0, %index
  %or.cond = select i1 %cmp, i1 %cmp2, i1 false
  br i1 %or.cond, label %cond.true, label %cond.end

cond.true:                                        ; preds = %entry
  %elements = getelementptr inbounds i8, ptr %this, i64 16
  %1 = load ptr, ptr %elements, align 8
  %idxprom = zext nneg i32 %index to i64
  %arrayidx = getelementptr inbounds %union.UElement, ptr %1, i64 %idxprom
  %2 = load i32, ptr %arrayidx, align 8
  br label %cond.end

cond.end:                                         ; preds = %entry, %cond.true
  %cond = phi i32 [ %2, %cond.true ], [ 0, %entry ]
  ret i32 %cond
}